target datalayout = "e-m:e-p270:32:32-p271:32:32-p272:64:64-i64:64-i128:128-f80:128-n8:16:32:64-S128"
target triple = "x86_64-pc-linux-gnu"

@_click_time = internal global i32 -1, align 4

; Function Attrs: nounwind uwtable
define internal i32 @_menuitem_motion_preset(ptr noundef %0, ptr noundef %1, ptr noundef %2) #0 {
  %4 = alloca ptr, align 8
  %5 = alloca ptr, align 8
  %6 = alloca ptr, align 8
  store ptr %0, ptr %4, align 8, !tbaa !191
  store ptr %1, ptr %5, align 8, !tbaa !238
  store ptr %2, ptr %6, align 8, !tbaa !83
  %7 = load i32, ptr @_click_time, align 4, !tbaa !13
  %8 = icmp ne i32 %7, 0
  br i1 %8, label %10, label %9

9:                                                ; preds = %3
  store i32 -1, ptr @_click_time, align 4, !tbaa !13
  br label %10

10:                                               ; preds = %9, %3
  ret i32 0
}