; Function Attrs: mustprogress nofree norecurse nosync nounwind willreturn memory(readwrite, argmem: none, inaccessiblemem: none) uwtable
define internal noundef i32 @_menuitem_motion_preset(ptr readnone captures(none) %0, ptr readnone captures(none) %1, ptr readnone captures(none) %2) #13 {
  %4 = load i32, ptr @_click_time, align 4, !tbaa !117
  %.not = icmp eq i32 %4, 0
  br i1 %.not, label %5, label %6

5:                                                ; preds = %3
  store i32 -1, ptr @_click_time, align 4, !tbaa !117
  br label %6

6:                                                ; preds = %5, %3
  ret i32 0
}